(lp0
(lp1
(lp2
F-1.5933856964111328
aF0.44640323519706726
aF35.98921203613281
aa(lp3
F-3.7401888370513916
aF-3.049011468887329
aF28.664409637451172
aa(lp4
F-4.1204071044921875
aF-1.5980873107910156
aF25.199718475341797
aa(lp5
F-4.704595565795898
aF-3.24635910987854
aF17.756559371948242
aa(lp6
F-4.767068386077881
aF-1.919984221458435
aF17.511043548583984
aa(lp7
F-0.9274120330810547
aF15.713019371032715
aF34.11796569824219
aa(lp8
F-1.9458699226379395
aF17.17921257019043
aF34.20281219482422
aa(lp9
F-4.178777694702148
aF11.914971351623535
aF21.345088958740234
aa(lp10
F-4.784526824951172
aF4.63128662109375
aF32.458274841308594
aa(lp11
F-4.070565223693848
aF10.000894546508789
aF35.79228973388672
aa(lp12
F-4.589581489562988
aF15.330010414123535
aF41.7264404296875
aaa(lp13
(lp14
I1242
aI109
aa(lp15
I992
aI281
aa(lp16
I1080
aI343
aa(lp17
I835
aI531
aa(lp18
I985
aI562
aa(lp19
I2072
aI144
aa(lp20
I2139
aI196
aa(lp21
I2214
aI435
aa(lp22
I1560
aI311
aa(lp23
I1785
aI246
aa(lp24
I1948
aI258
aaa.